target datalayout = "e-m:e-p270:32:32-p271:32:32-p272:64:64-i64:64-i128:128-f80:128-n8:16:32:64-S128"
target triple = "x86_64-pc-linux-gnu"

%struct.cgroup_conf_t = type { ptr, ptr, i8, i8, float, float, i64, i8, float, float, i64, i8, ptr, i8, i8, i8, i8, i64 }
%struct.cgroup_limits_t = type { ptr, i32, ptr, ptr, i64, i64, i8, %struct.gres_device_id_t, i64, i64, i64, i64 }
%struct.gres_device_id_t = type { i32, i32, i32 }

@slurm_cgroup_conf = external global %struct.cgroup_conf_t, align 8
@constrain_ram_space = internal global i8 0, align 1
@constrain_swap_space = internal global i8 0, align 1
@allowed_ram_space = internal global float 0.000000e+00, align 4
@allowed_swap_space = internal global float 0.000000e+00, align 4
@totalram = internal global i64 0, align 8
@max_ram = internal global i64 0, align 8
@max_swap = internal global i64 0, align 8
@min_ram_space = internal global i64 0, align 8
@plugin_type = external constant [0 x i8], align 1
@.str.11 = private unnamed_addr constant [99 x i8] c"%s: %s: Setting memory soft limit (%lu bytes) to the same value as memory limit (%lu bytes) for %s\00", align 1
@__func__._memcg_initialize = private unnamed_addr constant [18 x i8] c"_memcg_initialize\00", align 1
@.str.12 = private unnamed_addr constant [5 x i8] c"step\00", align 1
@.str.13 = private unnamed_addr constant [4 x i8] c"job\00", align 1
@.str.14 = private unnamed_addr constant [77 x i8] c"%s: %s: %s: alloc=%luMB mem.limit=%luMB memsw.limit=%luMB job_swappiness=%lu\00", align 1
@.str.15 = private unnamed_addr constant [62 x i8] c"%s: %s: %s: alloc=%luMB mem.limit=%luMB memsw.limit=unlimited\00", align 1

; Function Attrs: nounwind uwtable
define internal i64 @percent_in_bytes(i64 noundef %0, float noundef %1) #0 {
  %3 = alloca i64, align 8
  %4 = alloca float, align 4
  store i64 %0, ptr %3, align 8
  store float %1, ptr %4, align 4
  %5 = load i64, ptr %3, align 8
  %6 = mul i64 %5, 1024
  %7 = mul i64 %6, 1024
  %8 = uitofp i64 %7 to double
  %9 = load float, ptr %4, align 4
  %10 = fpext float %9 to double
  %11 = fdiv double %10, 1.000000e+02
  %12 = fmul double %8, %11
  %13 = fptoui double %12 to i64
  ret i64 %13
}

; Function Attrs: nounwind uwtable
define internal i64 @swap_limit_in_bytes(i64 noundef %0) #0 {
  %2 = alloca i64, align 8
  %3 = alloca i64, align 8
  %4 = alloca i64, align 8
  %5 = alloca i32, align 4
  store i64 %0, ptr %3, align 8
  call void @llvm.lifetime.start.p0(i64 8, ptr %4) #4
  %6 = load i64, ptr %3, align 8
  %7 = icmp ne i64 %6, 0
  br i1 %7, label %8, label %10

8:                                                ; preds = %1
  %9 = load i64, ptr %3, align 8
  br label %12

10:                                               ; preds = %1
  %11 = load i64, ptr @totalram, align 8
  br label %12

12:                                               ; preds = %10, %8
  %13 = phi i64 [ %9, %8 ], [ %11, %10 ]
  %14 = load float, ptr @allowed_swap_space, align 4
  %15 = call i64 @percent_in_bytes(i64 noundef %13, float noundef %14)
  store i64 %15, ptr %4, align 8
  %16 = load i64, ptr %3, align 8
  %17 = call i64 @mem_limit_in_bytes(i64 noundef %16, i1 noundef zeroext true)
  %18 = load i64, ptr %4, align 8
  %19 = add i64 %17, %18
  store i64 %19, ptr %3, align 8
  %20 = load i64, ptr %3, align 8
  %21 = load i64, ptr @min_ram_space, align 8
  %22 = icmp ult i64 %20, %21
  br i1 %22, label %23, label %25

23:                                               ; preds = %12
  %24 = load i64, ptr @min_ram_space, align 8
  store i64 %24, ptr %2, align 8
  store i32 1, ptr %5, align 4
  br label %33

25:                                               ; preds = %12
  %26 = load i64, ptr %3, align 8
  %27 = load i64, ptr @max_swap, align 8
  %28 = icmp ugt i64 %26, %27
  br i1 %28, label %29, label %31

29:                                               ; preds = %25
  %30 = load i64, ptr @max_swap, align 8
  store i64 %30, ptr %2, align 8
  store i32 1, ptr %5, align 4
  br label %33

31:                                               ; preds = %25
  %32 = load i64, ptr %3, align 8
  store i64 %32, ptr %2, align 8
  store i32 1, ptr %5, align 4
  br label %33

33:                                               ; preds = %31, %29, %23
  call void @llvm.lifetime.end.p0(i64 8, ptr %4) #4
  %34 = load i64, ptr %2, align 8
  ret i64 %34
}

; Function Attrs: nounwind uwtable
define internal i64 @mem_limit_in_bytes(i64 noundef %0, i1 noundef zeroext %1) #0 {
  %3 = alloca i64, align 8
  %4 = alloca i64, align 8
  %5 = alloca i8, align 1
  store i64 %0, ptr %4, align 8
  %6 = zext i1 %1 to i8
  store i8 %6, ptr %5, align 1
  %7 = load i64, ptr %4, align 8
  %8 = icmp eq i64 %7, 0
  br i1 %8, label %9, label %13

9:                                                ; preds = %2
  %10 = load i64, ptr @totalram, align 8
  %11 = mul i64 %10, 1024
  %12 = mul i64 %11, 1024
  store i64 %12, ptr %4, align 8
  br label %24

13:                                               ; preds = %2
  %14 = load i8, ptr %5, align 1, !range !8, !noundef !9
  %15 = trunc i8 %14 to i1
  br i1 %15, label %16, label %20

16:                                               ; preds = %13
  %17 = load i64, ptr %4, align 8
  %18 = load float, ptr @allowed_ram_space, align 4
  %19 = call i64 @percent_in_bytes(i64 noundef %17, float noundef %18)
  store i64 %19, ptr %4, align 8
  br label %23

20:                                               ; preds = %13
  %21 = load i64, ptr %4, align 8
  %22 = call i64 @percent_in_bytes(i64 noundef %21, float noundef 1.000000e+02)
  store i64 %22, ptr %4, align 8
  br label %23

23:                                               ; preds = %20, %16
  br label %24

24:                                               ; preds = %23, %9
  %25 = load i64, ptr %4, align 8
  %26 = load i64, ptr @min_ram_space, align 8
  %27 = icmp ult i64 %25, %26
  br i1 %27, label %28, label %30

28:                                               ; preds = %24
  %29 = load i64, ptr @min_ram_space, align 8
  store i64 %29, ptr %3, align 8
  br label %38

30:                                               ; preds = %24
  %31 = load i64, ptr %4, align 8
  %32 = load i64, ptr @max_ram, align 8
  %33 = icmp ugt i64 %31, %32
  br i1 %33, label %34, label %36

34:                                               ; preds = %30
  %35 = load i64, ptr @max_ram, align 8
  store i64 %35, ptr %3, align 8
  br label %38

36:                                               ; preds = %30
  %37 = load i64, ptr %4, align 8
  store i64 %37, ptr %3, align 8
  br label %38

38:                                               ; preds = %36, %34, %28
  %39 = load i64, ptr %3, align 8
  ret i64 %39
}

; Function Attrs: nounwind uwtable
define internal i32 @_memcg_initialize(ptr noundef %0, i64 noundef %1, i1 noundef zeroext %2) #0 {
  %4 = alloca i32, align 4
  %5 = alloca ptr, align 8
  %6 = alloca i64, align 8
  %7 = alloca i8, align 1
  %8 = alloca i64, align 8
  %9 = alloca i64, align 8
  %10 = alloca i64, align 8
  %11 = alloca %struct.cgroup_limits_t, align 8
  %12 = alloca i32, align 4
  store ptr %0, ptr %5, align 8
  store i64 %1, ptr %6, align 8
  %13 = zext i1 %2 to i8
  store i8 %13, ptr %7, align 1
  call void @llvm.lifetime.start.p0(i64 8, ptr %8) #4
  %14 = load i64, ptr %6, align 8
  %15 = call i64 @mem_limit_in_bytes(i64 noundef %14, i1 noundef zeroext true)
  store i64 %15, ptr %8, align 8
  call void @llvm.lifetime.start.p0(i64 8, ptr %9) #4
  %16 = load i64, ptr %6, align 8
  %17 = call i64 @mem_limit_in_bytes(i64 noundef %16, i1 noundef zeroext false)
  store i64 %17, ptr %9, align 8
  call void @llvm.lifetime.start.p0(i64 8, ptr %10) #4
  %18 = load i64, ptr %6, align 8
  %19 = call i64 @swap_limit_in_bytes(i64 noundef %18)
  store i64 %19, ptr %10, align 8
  call void @llvm.lifetime.start.p0(i64 96, ptr %11) #4
  %20 = load i64, ptr %9, align 8
  %21 = load i64, ptr %8, align 8
  %22 = icmp ugt i64 %20, %21
  br i1 %22, label %23, label %40

23:                                               ; preds = %3
  br label %24

24:                                               ; preds = %23
  br label %25

25:                                               ; preds = %24
  %26 = call i32 @get_log_level()
  %27 = icmp sge i32 %26, 6
  br i1 %27, label %28, label %34

28:                                               ; preds = %25
  %29 = load i64, ptr %9, align 8
  %30 = load i64, ptr %8, align 8
  %31 = load i8, ptr %7, align 1, !range !8, !noundef !9
  %32 = trunc i8 %31 to i1
  %33 = select i1 %32, ptr @.str.12, ptr @.str.13
  call void (i32, ptr, ...) @log_var(i32 noundef 6, ptr noundef @.str.11, ptr noundef @plugin_type, ptr noundef @__func__._memcg_initialize, i64 noundef %29, i64 noundef %30, ptr noundef %33)
  br label %34

34:                                               ; preds = %28, %25
  br label %35

35:                                               ; preds = %34
  br label %36

36:                                               ; preds = %35
  br label %37

37:                                               ; preds = %36
  br label %38

38:                                               ; preds = %37
  %39 = load i64, ptr %8, align 8
  store i64 %39, ptr %9, align 8
  br label %40

40:                                               ; preds = %38, %3
  call void @cgroup_init_limits(ptr noundef %11)
  %41 = load i8, ptr @constrain_ram_space, align 1, !range !8, !noundef !9
  %42 = trunc i8 %41 to i1
  br i1 %42, label %45, label %43

43:                                               ; preds = %40
  %44 = load i64, ptr %10, align 8
  store i64 %44, ptr %8, align 8
  br label %45

45:                                               ; preds = %43, %40
  %46 = load i64, ptr %8, align 8
  %47 = getelementptr inbounds nuw %struct.cgroup_limits_t, ptr %11, i32 0, i32 8
  store i64 %46, ptr %47, align 8
  %48 = load i64, ptr %9, align 8
  %49 = getelementptr inbounds nuw %struct.cgroup_limits_t, ptr %11, i32 0, i32 9
  store i64 %48, ptr %49, align 8
  %50 = getelementptr inbounds nuw %struct.cgroup_limits_t, ptr %11, i32 0, i32 10
  store i64 -2, ptr %50, align 8
  %51 = getelementptr inbounds nuw %struct.cgroup_limits_t, ptr %11, i32 0, i32 11
  store i64 -2, ptr %51, align 8
  %52 = load i8, ptr @constrain_swap_space, align 1, !range !8, !noundef !9
  %53 = trunc i8 %52 to i1
  br i1 %53, label %54, label %79

54:                                               ; preds = %45
  %55 = load i64, ptr getelementptr inbounds nuw (%struct.cgroup_conf_t, ptr @slurm_cgroup_conf, i32 0, i32 10), align 8
  %56 = getelementptr inbounds nuw %struct.cgroup_limits_t, ptr %11, i32 0, i32 11
  store i64 %55, ptr %56, align 8
  %57 = load i64, ptr %10, align 8
  %58 = getelementptr inbounds nuw %struct.cgroup_limits_t, ptr %11, i32 0, i32 10
  store i64 %57, ptr %58, align 8
  br label %59

59:                                               ; preds = %54
  br label %60

60:                                               ; preds = %59
  %61 = call i32 @get_log_level()
  %62 = icmp sge i32 %61, 3
  br i1 %62, label %63, label %74

63:                                               ; preds = %60
  %64 = load i8, ptr %7, align 1, !range !8, !noundef !9
  %65 = trunc i8 %64 to i1
  %66 = select i1 %65, ptr @.str.12, ptr @.str.13
  %67 = load i64, ptr %6, align 8
  %68 = load i64, ptr %8, align 8
  %69 = udiv i64 %68, 1048576
  %70 = load i64, ptr %10, align 8
  %71 = udiv i64 %70, 1048576
  %72 = getelementptr inbounds nuw %struct.cgroup_limits_t, ptr %11, i32 0, i32 11
  %73 = load i64, ptr %72, align 8
  call void (i32, ptr, ...) @log_var(i32 noundef 3, ptr noundef @.str.14, ptr noundef @plugin_type, ptr noundef @__func__._memcg_initialize, ptr noundef %66, i64 noundef %67, i64 noundef %69, i64 noundef %71, i64 noundef %73)
  br label %74

74:                                               ; preds = %63, %60
  br label %75

75:                                               ; preds = %74
  br label %76

76:                                               ; preds = %75
  br label %77

77:                                               ; preds = %76
  br label %78

78:                                               ; preds = %77
  br label %96

79:                                               ; preds = %45
  br label %80

80:                                               ; preds = %79
  br label %81

81:                                               ; preds = %80
  %82 = call i32 @get_log_level()
  %83 = icmp sge i32 %82, 3
  br i1 %83, label %84, label %91

84:                                               ; preds = %81
  %85 = load i8, ptr %7, align 1, !range !8, !noundef !9
  %86 = trunc i8 %85 to i1
  %87 = select i1 %86, ptr @.str.12, ptr @.str.13
  %88 = load i64, ptr %6, align 8
  %89 = load i64, ptr %8, align 8
  %90 = udiv i64 %89, 1048576
  call void (i32, ptr, ...) @log_var(i32 noundef 3, ptr noundef @.str.15, ptr noundef @plugin_type, ptr noundef @__func__._memcg_initialize, ptr noundef %87, i64 noundef %88, i64 noundef %90)
  br label %91

91:                                               ; preds = %84, %81
  br label %92

92:                                               ; preds = %91
  br label %93

93:                                               ; preds = %92
  br label %94

94:                                               ; preds = %93
  br label %95

95:                                               ; preds = %94
  br label %96

96:                                               ; preds = %95, %78
  %97 = load i8, ptr %7, align 1, !range !8, !noundef !9
  %98 = trunc i8 %97 to i1
  br i1 %98, label %104, label %99

99:                                               ; preds = %96
  %100 = call i32 @cgroup_g_constrain_set(i32 noundef 2, i32 noundef 3, ptr noundef %11)
  %101 = icmp ne i32 %100, 0
  br i1 %101, label %102, label %103

102:                                              ; preds = %99
  store i32 -1, ptr %4, align 4
  store i32 1, ptr %12, align 4
  br label %110

103:                                              ; preds = %99
  br label %109

104:                                              ; preds = %96
  %105 = call i32 @cgroup_g_constrain_set(i32 noundef 2, i32 noundef 4, ptr noundef %11)
  %106 = icmp ne i32 %105, 0
  br i1 %106, label %107, label %108

107:                                              ; preds = %104
  store i32 -1, ptr %4, align 4
  store i32 1, ptr %12, align 4
  br label %110

108:                                              ; preds = %104
  br label %109

109:                                              ; preds = %108, %103
  store i32 0, ptr %4, align 4
  store i32 1, ptr %12, align 4
  br label %110

110:                                              ; preds = %109, %107, %102
  call void @llvm.lifetime.end.p0(i64 96, ptr %11) #4
  call void @llvm.lifetime.end.p0(i64 8, ptr %10) #4
  call void @llvm.lifetime.end.p0(i64 8, ptr %9) #4
  call void @llvm.lifetime.end.p0(i64 8, ptr %8) #4
  %111 = load i32, ptr %4, align 4
  ret i32 %111
}