; Function Attrs: nounwind uwtable
define internal fastcc range(i32 -1, 1) i32 @_memcg_initialize(i64 noundef %0, i1 noundef zeroext %1) unnamed_addr #0 {
  %3 = alloca %struct.cgroup_limits_t, align 8
  %4 = icmp eq i64 %0, 0
  br i1 %4, label %5, label %11

5:                                                ; preds = %2
  %6 = load i64, ptr @totalram, align 8
  %7 = shl i64 %6, 20
  %8 = load i64, ptr @min_ram_space, align 8
  %9 = icmp ult i64 %7, %8
  %10 = load i64, ptr @max_ram, align 8
  %..08.i2 = tail call i64 @llvm.umin.i64(i64 %7, i64 %10)
  %.0.i3 = select i1 %9, i64 %8, i64 %..08.i2
  %.pre.i = uitofp i64 %7 to double
  br label %swap_limit_in_bytes.exit

11:                                               ; preds = %2
  %12 = load float, ptr @allowed_ram_space, align 4
  %13 = shl i64 %0, 20
  %14 = uitofp i64 %13 to double
  %15 = fpext float %12 to double
  %16 = fdiv double %15, 1.000000e+02
  %17 = fmul double %16, %14
  %18 = fptoui double %17 to i64
  %19 = load i64, ptr @min_ram_space, align 8
  %20 = icmp ugt i64 %19, %18
  %21 = load i64, ptr @max_ram, align 8
  %..08.i = tail call i64 @llvm.umin.i64(i64 %18, i64 %21)
  %.0.i = select i1 %20, i64 %19, i64 %..08.i
  %22 = icmp ult i64 %13, %19
  %..08.i28 = tail call i64 @llvm.umin.i64(i64 %13, i64 %21)
  %.0.i29 = select i1 %22, i64 %19, i64 %..08.i28
  br label %swap_limit_in_bytes.exit

swap_limit_in_bytes.exit:                         ; preds = %5, %11
  %.0.i2912 = phi i64 [ %.0.i3, %5 ], [ %.0.i29, %11 ]
  %23 = phi i64 [ %8, %5 ], [ %19, %11 ]
  %.0.i410 = phi i64 [ %.0.i3, %5 ], [ %.0.i, %11 ]
  %.pre-phi11.i = phi double [ %.pre.i, %5 ], [ %14, %11 ]
  %24 = load float, ptr @allowed_swap_space, align 4
  %25 = fpext float %24 to double
  %26 = fdiv double %25, 1.000000e+02
  %27 = fmul double %.pre-phi11.i, %26
  %28 = fptoui double %27 to i64
  %29 = add i64 %.0.i410, %28
  %30 = icmp ult i64 %29, %23
  %31 = load i64, ptr @max_swap, align 8
  %..i = tail call i64 @llvm.umin.i64(i64 %29, i64 %31)
  %.0.i31 = select i1 %30, i64 %23, i64 %..i
  call void @llvm.lifetime.start.p0(i64 96, ptr nonnull %3) #5
  %32 = icmp ugt i64 %.0.i2912, %.0.i410
  br i1 %32, label %33, label %38

33:                                               ; preds = %swap_limit_in_bytes.exit
  %34 = tail call i32 @get_log_level() #5
  %35 = icmp sgt i32 %34, 5
  br i1 %35, label %36, label %38

36:                                               ; preds = %33
  %37 = select i1 %1, ptr @.str.12, ptr @.str.13
  tail call void (i32, ptr, ...) @log_var(i32 noundef 6, ptr noundef nonnull @.str.11, ptr noundef nonnull @plugin_type, ptr noundef nonnull @__func__._memcg_initialize, i64 noundef %.0.i2912, i64 noundef %.0.i410, ptr noundef nonnull %37) #5
  br label %38

38:                                               ; preds = %33, %36, %swap_limit_in_bytes.exit
  %.022 = phi i64 [ %.0.i2912, %swap_limit_in_bytes.exit ], [ %.0.i410, %36 ], [ %.0.i410, %33 ]
  call void @cgroup_init_limits(ptr noundef nonnull %3) #5
  %39 = load i8, ptr @constrain_ram_space, align 1, !range !8, !noundef !9
  %40 = trunc nuw i8 %39 to i1
  %spec.select = select i1 %40, i64 %.0.i410, i64 %.0.i31
  %41 = getelementptr inbounds nuw i8, ptr %3, i64 64
  store i64 %spec.select, ptr %41, align 8
  %42 = getelementptr inbounds nuw i8, ptr %3, i64 72
  store i64 %.022, ptr %42, align 8
  %43 = getelementptr inbounds nuw i8, ptr %3, i64 80
  store i64 -2, ptr %43, align 8
  %44 = getelementptr inbounds nuw i8, ptr %3, i64 88
  store i64 -2, ptr %44, align 8
  %45 = load i8, ptr @constrain_swap_space, align 1, !range !8, !noundef !9
  %46 = trunc nuw i8 %45 to i1
  br i1 %46, label %47, label %56

47:                                               ; preds = %38
  %48 = load i64, ptr getelementptr inbounds nuw (i8, ptr @slurm_cgroup_conf, i64 56), align 8
  store i64 %48, ptr %44, align 8
  store i64 %.0.i31, ptr %43, align 8
  %49 = call i32 @get_log_level() #5
  %50 = icmp sgt i32 %49, 2
  br i1 %50, label %51, label %62

51:                                               ; preds = %47
  %52 = select i1 %1, ptr @.str.12, ptr @.str.13
  %53 = lshr i64 %spec.select, 20
  %54 = lshr i64 %.0.i31, 20
  %55 = load i64, ptr %44, align 8
  call void (i32, ptr, ...) @log_var(i32 noundef 3, ptr noundef nonnull @.str.14, ptr noundef nonnull @plugin_type, ptr noundef nonnull @__func__._memcg_initialize, ptr noundef nonnull %52, i64 noundef %0, i64 noundef %53, i64 noundef %54, i64 noundef %55) #5
  br label %62

56:                                               ; preds = %38
  %57 = call i32 @get_log_level() #5
  %58 = icmp sgt i32 %57, 2
  br i1 %58, label %59, label %62

59:                                               ; preds = %56
  %60 = select i1 %1, ptr @.str.12, ptr @.str.13
  %61 = lshr i64 %spec.select, 20
  call void (i32, ptr, ...) @log_var(i32 noundef 3, ptr noundef nonnull @.str.15, ptr noundef nonnull @plugin_type, ptr noundef nonnull @__func__._memcg_initialize, ptr noundef nonnull %60, i64 noundef %0, i64 noundef %61) #5
  br label %62

62:                                               ; preds = %56, %59, %47, %51
  br i1 %1, label %65, label %63

63:                                               ; preds = %62
  %64 = call i32 @cgroup_g_constrain_set(i32 noundef 2, i32 noundef 3, ptr noundef nonnull %3) #5
  %.not = icmp eq i32 %64, 0
  br i1 %.not, label %67, label %68

65:                                               ; preds = %62
  %66 = call i32 @cgroup_g_constrain_set(i32 noundef 2, i32 noundef 4, ptr noundef nonnull %3) #5
  %.not26 = icmp eq i32 %66, 0
  br i1 %.not26, label %67, label %68

67:                                               ; preds = %65, %63
  br label %68

68:                                               ; preds = %65, %63, %67
  %.0 = phi i32 [ 0, %67 ], [ -1, %63 ], [ -1, %65 ]
  call void @llvm.lifetime.end.p0(i64 96, ptr nonnull %3) #5
  ret i32 %.0
}